target datalayout = "e-m:e-p270:32:32-p271:32:32-p272:64:64-i64:64-i128:128-f80:128-n8:16:32:64-S128"
target triple = "x86_64-unknown-linux-gnu"

%"class.zmq::ip_resolver_options_t" = type { i8, i8, i8, i8, i8, i8 }
%"class.zmq::ip_resolver_t" = type <{ ptr, %"class.zmq::ip_resolver_options_t", [2 x i8] }>
%struct.addrinfo = type { i32, i32, i32, i32, i32, ptr, ptr, ptr }

@stderr = external global ptr, align 8
@.str.2 = private unnamed_addr constant [30 x i8] c"Assertion failed: %s (%s:%d)\0A\00", align 1
@.str.3 = private unnamed_addr constant [12 x i8] c"res != NULL\00", align 1
@.str.4 = private unnamed_addr constant [111 x i8] c"generated/home/dtcxzyw/WorkSpace/Projects/compilers/llvm-opt-benchmark/bench/libzmq/libzmq/src/ip_resolver.cpp\00", align 1
@.str.5 = private unnamed_addr constant [60 x i8] c"static_cast<size_t> (res->ai_addrlen) <= sizeof (*ip_addr_)\00", align 1

; Function Attrs: mustprogress nounwind uwtable
define noundef zeroext i1 @_ZN3zmq21ip_resolver_options_t9allow_dnsEv(ptr noundef nonnull align 1 dereferenceable(6) %this) #0 align 2 {
entry:
  %this.addr = alloca ptr, align 8
  store ptr %this, ptr %this.addr, align 8
  %this1 = load ptr, ptr %this.addr, align 8
  %_dns_allowed = getelementptr inbounds %"class.zmq::ip_resolver_options_t", ptr %this1, i32 0, i32 4
  %0 = load i8, ptr %_dns_allowed, align 1
  %tobool = trunc i8 %0 to i1
  ret i1 %tobool
}

; Function Attrs: mustprogress nounwind uwtable
define noundef zeroext i1 @_ZN3zmq21ip_resolver_options_t8bindableEv(ptr noundef nonnull align 1 dereferenceable(6) %this) #0 align 2 {
entry:
  %this.addr = alloca ptr, align 8
  store ptr %this, ptr %this.addr, align 8
  %this1 = load ptr, ptr %this.addr, align 8
  %_bindable_wanted = getelementptr inbounds %"class.zmq::ip_resolver_options_t", ptr %this1, i32 0, i32 0
  %0 = load i8, ptr %_bindable_wanted, align 1
  %tobool = trunc i8 %0 to i1
  ret i1 %tobool
}

; Function Attrs: mustprogress nounwind uwtable
define noundef zeroext i1 @_ZN3zmq21ip_resolver_options_t4ipv6Ev(ptr noundef nonnull align 1 dereferenceable(6) %this) #0 align 2 {
entry:
  %this.addr = alloca ptr, align 8
  store ptr %this, ptr %this.addr, align 8
  %this1 = load ptr, ptr %this.addr, align 8
  %_ipv6_wanted = getelementptr inbounds %"class.zmq::ip_resolver_options_t", ptr %this1, i32 0, i32 2
  %0 = load i8, ptr %_ipv6_wanted, align 1
  %tobool = trunc i8 %0 to i1
  ret i1 %tobool
}

; Function Attrs: mustprogress uwtable
define noundef i32 @_ZN3zmq13ip_resolver_t19resolve_getaddrinfoEPNS_9ip_addr_tEPKc(ptr noundef nonnull align 8 dereferenceable(14) %this, ptr noundef %ip_addr_, ptr noundef %addr_) #4 align 2 {
entry:
  %retval = alloca i32, align 4
  %this.addr = alloca ptr, align 8
  %ip_addr_.addr = alloca ptr, align 8
  %addr_.addr = alloca ptr, align 8
  %res = alloca ptr, align 8
  %req = alloca %struct.addrinfo, align 8
  %rc = alloca i32, align 4
  store ptr %this, ptr %this.addr, align 8
  store ptr %ip_addr_, ptr %ip_addr_.addr, align 8
  store ptr %addr_, ptr %addr_.addr, align 8
  %this1 = load ptr, ptr %this.addr, align 8
  store ptr null, ptr %res, align 8
  call void @llvm.memset.p0.i64(ptr align 8 %req, i8 0, i64 48, i1 false)
  %_options = getelementptr inbounds %"class.zmq::ip_resolver_t", ptr %this1, i32 0, i32 1
  %call = call noundef zeroext i1 @_ZN3zmq21ip_resolver_options_t4ipv6Ev(ptr noundef nonnull align 1 dereferenceable(6) %_options)
  %cond = select i1 %call, i32 10, i32 2
  %ai_family = getelementptr inbounds %struct.addrinfo, ptr %req, i32 0, i32 1
  store i32 %cond, ptr %ai_family, align 4
  %ai_socktype = getelementptr inbounds %struct.addrinfo, ptr %req, i32 0, i32 2
  store i32 1, ptr %ai_socktype, align 8
  %ai_flags = getelementptr inbounds %struct.addrinfo, ptr %req, i32 0, i32 0
  store i32 0, ptr %ai_flags, align 8
  %_options2 = getelementptr inbounds %"class.zmq::ip_resolver_t", ptr %this1, i32 0, i32 1
  %call3 = call noundef zeroext i1 @_ZN3zmq21ip_resolver_options_t8bindableEv(ptr noundef nonnull align 1 dereferenceable(6) %_options2)
  br i1 %call3, label %if.then, label %if.end

if.then:                                          ; preds = %entry
  %ai_flags4 = getelementptr inbounds %struct.addrinfo, ptr %req, i32 0, i32 0
  %0 = load i32, ptr %ai_flags4, align 8
  %or = or i32 %0, 1
  store i32 %or, ptr %ai_flags4, align 8
  br label %if.end

if.end:                                           ; preds = %if.then, %entry
  %_options5 = getelementptr inbounds %"class.zmq::ip_resolver_t", ptr %this1, i32 0, i32 1
  %call6 = call noundef zeroext i1 @_ZN3zmq21ip_resolver_options_t9allow_dnsEv(ptr noundef nonnull align 1 dereferenceable(6) %_options5)
  br i1 %call6, label %if.end10, label %if.then7

if.then7:                                         ; preds = %if.end
  %ai_flags8 = getelementptr inbounds %struct.addrinfo, ptr %req, i32 0, i32 0
  %1 = load i32, ptr %ai_flags8, align 8
  %or9 = or i32 %1, 4
  store i32 %or9, ptr %ai_flags8, align 8
  br label %if.end10

if.end10:                                         ; preds = %if.then7, %if.end
  %ai_family11 = getelementptr inbounds %struct.addrinfo, ptr %req, i32 0, i32 1
  %2 = load i32, ptr %ai_family11, align 4
  %cmp = icmp eq i32 %2, 10
  br i1 %cmp, label %if.then12, label %if.end15

if.then12:                                        ; preds = %if.end10
  %ai_flags13 = getelementptr inbounds %struct.addrinfo, ptr %req, i32 0, i32 0
  %3 = load i32, ptr %ai_flags13, align 8
  %or14 = or i32 %3, 8
  store i32 %or14, ptr %ai_flags13, align 8
  br label %if.end15

if.end15:                                         ; preds = %if.then12, %if.end10
  %4 = load ptr, ptr %addr_.addr, align 8
  %vtable = load ptr, ptr %this1, align 8
  %vfn = getelementptr inbounds ptr, ptr %vtable, i64 2
  %5 = load ptr, ptr %vfn, align 8
  %call16 = call noundef i32 %5(ptr noundef nonnull align 8 dereferenceable(14) %this1, ptr noundef %4, ptr noundef null, ptr noundef %req, ptr noundef %res)
  store i32 %call16, ptr %rc, align 4
  %6 = load i32, ptr %rc, align 4
  %cmp17 = icmp eq i32 %6, -1
  br i1 %cmp17, label %land.lhs.true, label %if.end25

land.lhs.true:                                    ; preds = %if.end15
  %ai_flags18 = getelementptr inbounds %struct.addrinfo, ptr %req, i32 0, i32 0
  %7 = load i32, ptr %ai_flags18, align 8
  %and = and i32 %7, 8
  %tobool = icmp ne i32 %and, 0
  br i1 %tobool, label %if.then19, label %if.end25

if.then19:                                        ; preds = %land.lhs.true
  %ai_flags20 = getelementptr inbounds %struct.addrinfo, ptr %req, i32 0, i32 0
  %8 = load i32, ptr %ai_flags20, align 8
  %and21 = and i32 %8, -9
  store i32 %and21, ptr %ai_flags20, align 8
  %9 = load ptr, ptr %addr_.addr, align 8
  %vtable22 = load ptr, ptr %this1, align 8
  %vfn23 = getelementptr inbounds ptr, ptr %vtable22, i64 2
  %10 = load ptr, ptr %vfn23, align 8
  %call24 = call noundef i32 %10(ptr noundef nonnull align 8 dereferenceable(14) %this1, ptr noundef %9, ptr noundef null, ptr noundef %req, ptr noundef %res)
  store i32 %call24, ptr %rc, align 4
  br label %if.end25

if.end25:                                         ; preds = %if.then19, %land.lhs.true, %if.end15
  %11 = load i32, ptr %rc, align 4
  %tobool26 = icmp ne i32 %11, 0
  br i1 %tobool26, label %if.then27, label %if.end35

if.then27:                                        ; preds = %if.end25
  %12 = load i32, ptr %rc, align 4
  switch i32 %12, label %sw.default [
    i32 -10, label %sw.bb
  ]

sw.bb:                                            ; preds = %if.then27
  %call28 = call ptr @__errno_location() #9
  store i32 12, ptr %call28, align 4
  br label %sw.epilog

sw.default:                                       ; preds = %if.then27
  %_options29 = getelementptr inbounds %"class.zmq::ip_resolver_t", ptr %this1, i32 0, i32 1
  %call30 = call noundef zeroext i1 @_ZN3zmq21ip_resolver_options_t8bindableEv(ptr noundef nonnull align 1 dereferenceable(6) %_options29)
  br i1 %call30, label %if.then31, label %if.else

if.then31:                                        ; preds = %sw.default
  %call32 = call ptr @__errno_location() #9
  store i32 19, ptr %call32, align 4
  br label %if.end34

if.else:                                          ; preds = %sw.default
  %call33 = call ptr @__errno_location() #9
  store i32 22, ptr %call33, align 4
  br label %if.end34

if.end34:                                         ; preds = %if.else, %if.then31
  br label %sw.epilog

sw.epilog:                                        ; preds = %if.end34, %sw.bb
  store i32 -1, ptr %retval, align 4
  br label %return

if.end35:                                         ; preds = %if.end25
  br label %do.body

do.body:                                          ; preds = %if.end35
  %13 = load ptr, ptr %res, align 8
  %cmp36 = icmp ne ptr %13, null
  %lnot = xor i1 %cmp36, true
  br i1 %lnot, label %if.then37, label %if.end40

if.then37:                                        ; preds = %do.body
  %14 = load ptr, ptr @stderr, align 8
  %call38 = call i32 (ptr, ptr, ...) @fprintf(ptr noundef %14, ptr noundef @.str.2, ptr noundef @.str.3, ptr noundef @.str.4, i32 noundef 394)
  %15 = load ptr, ptr @stderr, align 8
  %call39 = call i32 @fflush(ptr noundef %15)
  call void @_ZN3zmq9zmq_abortEPKc(ptr noundef @.str.3)
  br label %if.end40

if.end40:                                         ; preds = %if.then37, %do.body
  br label %do.end

do.end:                                           ; preds = %if.end40
  br label %do.body41

do.body41:                                        ; preds = %do.end
  %16 = load ptr, ptr %res, align 8
  %ai_addrlen = getelementptr inbounds %struct.addrinfo, ptr %16, i32 0, i32 4
  %17 = load i32, ptr %ai_addrlen, align 8
  %conv = zext i32 %17 to i64
  %cmp42 = icmp ule i64 %conv, 28
  %lnot43 = xor i1 %cmp42, true
  br i1 %lnot43, label %if.then45, label %if.end48

if.then45:                                        ; preds = %do.body41
  %18 = load ptr, ptr @stderr, align 8
  %call46 = call i32 (ptr, ptr, ...) @fprintf(ptr noundef %18, ptr noundef @.str.2, ptr noundef @.str.5, ptr noundef @.str.4, i32 noundef 395)
  %19 = load ptr, ptr @stderr, align 8
  %call47 = call i32 @fflush(ptr noundef %19)
  call void @_ZN3zmq9zmq_abortEPKc(ptr noundef @.str.5)
  br label %if.end48

if.end48:                                         ; preds = %if.then45, %do.body41
  br label %do.end49

do.end49:                                         ; preds = %if.end48
  %20 = load ptr, ptr %ip_addr_.addr, align 8
  %21 = load ptr, ptr %res, align 8
  %ai_addr = getelementptr inbounds %struct.addrinfo, ptr %21, i32 0, i32 5
  %22 = load ptr, ptr %ai_addr, align 8
  %23 = load ptr, ptr %res, align 8
  %ai_addrlen50 = getelementptr inbounds %struct.addrinfo, ptr %23, i32 0, i32 4
  %24 = load i32, ptr %ai_addrlen50, align 8
  %conv51 = zext i32 %24 to i64
  call void @llvm.memcpy.p0.p0.i64(ptr align 4 %20, ptr align 2 %22, i64 %conv51, i1 false)
  %25 = load ptr, ptr %res, align 8
  %vtable52 = load ptr, ptr %this1, align 8
  %vfn53 = getelementptr inbounds ptr, ptr %vtable52, i64 3
  %26 = load ptr, ptr %vfn53, align 8
  call void %26(ptr noundef nonnull align 8 dereferenceable(14) %this1, ptr noundef %25)
  store i32 0, ptr %retval, align 4
  br label %return

return:                                           ; preds = %do.end49, %sw.epilog
  %27 = load i32, ptr %retval, align 4
  ret i32 %27
}