; Function Attrs: mustprogress uwtable
define noundef i32 @_ZN3zmq13ip_resolver_t19resolve_getaddrinfoEPNS_9ip_addr_tEPKc(ptr noundef nonnull align 8 dereferenceable(14) %this, ptr nocapture noundef writeonly %ip_addr_, ptr noundef %addr_) local_unnamed_addr #9 align 2 {
entry:
  %res = alloca ptr, align 8
  %req = alloca %struct.addrinfo, align 8
  store ptr null, ptr %res, align 8
  %0 = getelementptr inbounds i8, ptr %req, i64 8
  call void @llvm.memset.p0.i64(ptr noundef nonnull align 8 dereferenceable(48) %0, i8 0, i64 40, i1 false)
  %_options = getelementptr inbounds i8, ptr %this, i64 8
  %_ipv6_wanted.i = getelementptr inbounds i8, ptr %this, i64 10
  %1 = load i8, ptr %_ipv6_wanted.i, align 2
  %2 = and i8 %1, 1
  %tobool.i.not = icmp ne i8 %2, 0
  %cond = select i1 %tobool.i.not, i32 10, i32 2
  %ai_family = getelementptr inbounds i8, ptr %req, i64 4
  store i32 %cond, ptr %ai_family, align 4
  %ai_socktype = getelementptr inbounds i8, ptr %req, i64 8
  store i32 1, ptr %ai_socktype, align 8
  %3 = load i8, ptr %_options, align 8
  %4 = and i8 %3, 1
  %spec.store.select = zext nneg i8 %4 to i32
  store i32 %spec.store.select, ptr %req, align 8
  %_dns_allowed.i = getelementptr inbounds i8, ptr %this, i64 12
  %5 = load i8, ptr %_dns_allowed.i, align 4
  %6 = and i8 %5, 1
  %tobool.i6.not.not = icmp eq i8 %6, 0
  %7 = or i1 %tobool.i6.not.not, %tobool.i.not
  br i1 %7, label %8, label %10

8:                                                ; preds = %entry
  %or9 = or disjoint i32 %spec.store.select, 4
  %9 = select i1 %tobool.i6.not.not, i32 %or9, i32 %spec.store.select
  %or14 = or disjoint i32 %9, 8
  %simplifycfg.merge = select i1 %tobool.i.not, i32 %or14, i32 %9
  store i32 %simplifycfg.merge, ptr %req, align 8
  br label %10

10:                                               ; preds = %entry, %8
  %vtable = load ptr, ptr %this, align 8
  %vfn = getelementptr inbounds i8, ptr %vtable, i64 16
  %11 = load ptr, ptr %vfn, align 8
  %call16 = call noundef i32 %11(ptr noundef nonnull align 8 dereferenceable(14) %this, ptr noundef %addr_, ptr noundef null, ptr noundef nonnull %req, ptr noundef nonnull %res)
  %cmp17 = icmp eq i32 %call16, -1
  br i1 %cmp17, label %land.lhs.true, label %if.end25

land.lhs.true:                                    ; preds = %10
  %12 = load i32, ptr %req, align 8
  %and = and i32 %12, 8
  %tobool.not = icmp eq i32 %and, 0
  br i1 %tobool.not, label %sw.default, label %if.then19

if.then19:                                        ; preds = %land.lhs.true
  %and21 = and i32 %12, -9
  store i32 %and21, ptr %req, align 8
  %vtable22 = load ptr, ptr %this, align 8
  %vfn23 = getelementptr inbounds i8, ptr %vtable22, i64 16
  %13 = load ptr, ptr %vfn23, align 8
  %call24 = call noundef i32 %13(ptr noundef nonnull align 8 dereferenceable(14) %this, ptr noundef %addr_, ptr noundef null, ptr noundef nonnull %req, ptr noundef nonnull %res)
  br label %if.end25

if.end25:                                         ; preds = %if.then19, %10
  %rc.0 = phi i32 [ %call24, %if.then19 ], [ %call16, %10 ]
  switch i32 %rc.0, label %sw.default [
    i32 0, label %do.body
    i32 -10, label %sw.bb
  ]

sw.bb:                                            ; preds = %if.end25
  %call28 = tail call ptr @__errno_location() #17
  store i32 12, ptr %call28, align 4
  br label %return

sw.default:                                       ; preds = %land.lhs.true, %if.end25
  %14 = load i8, ptr %_options, align 8
  %15 = and i8 %14, 1
  %tobool.i7.not = icmp eq i8 %15, 0
  %call33 = tail call ptr @__errno_location() #17
  br i1 %tobool.i7.not, label %if.else, label %if.then31

if.then31:                                        ; preds = %sw.default
  store i32 19, ptr %call33, align 4
  br label %return

if.else:                                          ; preds = %sw.default
  store i32 22, ptr %call33, align 4
  br label %return

do.body:                                          ; preds = %if.end25
  %16 = load ptr, ptr %res, align 8
  %cmp36.not = icmp eq ptr %16, null
  br i1 %cmp36.not, label %if.then37, label %do.body41

if.then37:                                        ; preds = %do.body
  %17 = load ptr, ptr @stderr, align 8
  %call38 = call i32 (ptr, ptr, ...) @fprintf(ptr noundef %17, ptr noundef nonnull @.str.2, ptr noundef nonnull @.str.3, ptr noundef nonnull @.str.4, i32 noundef 394) #20
  %18 = load ptr, ptr @stderr, align 8
  %call39 = call i32 @fflush(ptr noundef %18)
  call void @_ZN3zmq9zmq_abortEPKc(ptr noundef nonnull @.str.3)
  %.pre = load ptr, ptr %res, align 8
  br label %do.body41

do.body41:                                        ; preds = %if.then37, %do.body
  %19 = phi ptr [ %.pre, %if.then37 ], [ %16, %do.body ]
  %ai_addrlen = getelementptr inbounds i8, ptr %19, i64 16
  %20 = load i32, ptr %ai_addrlen, align 8
  %cmp42 = icmp ugt i32 %20, 28
  br i1 %cmp42, label %if.then45, label %do.end49

if.then45:                                        ; preds = %do.body41
  %21 = load ptr, ptr @stderr, align 8
  %call46 = call i32 (ptr, ptr, ...) @fprintf(ptr noundef %21, ptr noundef nonnull @.str.2, ptr noundef nonnull @.str.5, ptr noundef nonnull @.str.4, i32 noundef 395) #20
  %22 = load ptr, ptr @stderr, align 8
  %call47 = call i32 @fflush(ptr noundef %22)
  call void @_ZN3zmq9zmq_abortEPKc(ptr noundef nonnull @.str.5)
  %.pre9 = load ptr, ptr %res, align 8
  %ai_addrlen50.phi.trans.insert = getelementptr inbounds i8, ptr %.pre9, i64 16
  %.pre10 = load i32, ptr %ai_addrlen50.phi.trans.insert, align 8
  br label %do.end49

do.end49:                                         ; preds = %do.body41, %if.then45
  %23 = phi i32 [ %20, %do.body41 ], [ %.pre10, %if.then45 ]
  %24 = phi ptr [ %19, %do.body41 ], [ %.pre9, %if.then45 ]
  %ai_addr = getelementptr inbounds i8, ptr %24, i64 24
  %25 = load ptr, ptr %ai_addr, align 8
  %conv51 = zext i32 %23 to i64
  call void @llvm.memcpy.p0.p0.i64(ptr align 4 %ip_addr_, ptr align 2 %25, i64 %conv51, i1 false)
  %vtable52 = load ptr, ptr %this, align 8
  %vfn53 = getelementptr inbounds i8, ptr %vtable52, i64 24
  %26 = load ptr, ptr %vfn53, align 8
  call void %26(ptr noundef nonnull align 8 dereferenceable(14) %this, ptr noundef nonnull %24)
  br label %return

return:                                           ; preds = %sw.bb, %if.else, %if.then31, %do.end49
  %retval.0 = phi i32 [ 0, %do.end49 ], [ -1, %if.then31 ], [ -1, %if.else ], [ -1, %sw.bb ]
  ret i32 %retval.0
}